target datalayout = "e-m:e-p270:32:32-p271:32:32-p272:64:64-i64:64-i128:128-f80:128-n8:16:32:64-S128"
target triple = "x86_64-pc-linux-gnu"

@.str.18 = private unnamed_addr constant [17 x i8] c"CVodeGetNumSteps\00", align 1
@.str.19 = private unnamed_addr constant [20 x i8] c"CVodeGetNumRhsEvals\00", align 1
@.str.20 = private unnamed_addr constant [25 x i8] c"CVodeGetNumLinSolvSetups\00", align 1
@.str.21 = private unnamed_addr constant [24 x i8] c"CVodeGetNumErrTestFails\00", align 1
@.str.22 = private unnamed_addr constant [27 x i8] c"CVodeGetNumNonlinSolvIters\00", align 1
@.str.23 = private unnamed_addr constant [31 x i8] c"CVodeGetNumNonlinSolvConvFails\00", align 1
@.str.24 = private unnamed_addr constant [20 x i8] c"CVodeGetNumJacEvals\00", align 1
@.str.25 = private unnamed_addr constant [23 x i8] c"CVodeGetNumLinRhsEvals\00", align 1
@.str.26 = private unnamed_addr constant [18 x i8] c"CVodeGetNumGEvals\00", align 1
@.str.27 = private unnamed_addr constant [20 x i8] c"\0AFinal Statistics:\0A\00", align 1
@.str.28 = private unnamed_addr constant [67 x i8] c"nst = %-6ld nfe  = %-6ld nsetups = %-6ld nfeLS = %-6ld nje = % ld\0A\00", align 1
@.str.29 = private unnamed_addr constant [51 x i8] c"nni = %-6ld ncfn = %-6ld netf = %-6ld nge = %ld\0A \0A\00", align 1
@stderr = external global ptr, align 8
@.str.30 = private unnamed_addr constant [56 x i8] c"\0ASUNDIALS_ERROR: %s() failed - returned NULL pointer\0A\0A \00", align 1
@.str.31 = private unnamed_addr constant [48 x i8] c"\0ASUNDIALS_ERROR: %s() failed with retval = %d\0A\0A\00", align 1
@.str.32 = private unnamed_addr constant [54 x i8] c"\0AMEMORY_ERROR: %s() failed - returned NULL pointer\0A\0A \00", align 1

; Function Attrs: nounwind uwtable
define internal i32 @check_retval(ptr noundef %0, ptr noundef %1, i32 noundef %2) #0 {
  %4 = alloca i32, align 4
  %5 = alloca ptr, align 8
  %6 = alloca ptr, align 8
  %7 = alloca i32, align 4
  %8 = alloca ptr, align 8
  %9 = alloca i32, align 4
  store ptr %0, ptr %5, align 8, !tbaa !13
  store ptr %1, ptr %6, align 8, !tbaa !22
  store i32 %2, ptr %7, align 4, !tbaa !16
  call void @llvm.lifetime.start.p0(i64 8, ptr %8) #5
  %10 = load i32, ptr %7, align 4, !tbaa !16
  %11 = icmp eq i32 %10, 0
  br i1 %11, label %12, label %19

12:                                               ; preds = %3
  %13 = load ptr, ptr %5, align 8, !tbaa !13
  %14 = icmp eq ptr %13, null
  br i1 %14, label %15, label %19

15:                                               ; preds = %12
  %16 = load ptr, ptr @stderr, align 8, !tbaa !24
  %17 = load ptr, ptr %6, align 8, !tbaa !22
  %18 = call i32 (ptr, ptr, ...) @fprintf(ptr noundef %16, ptr noundef @.str.30, ptr noundef %17) #5
  store i32 1, ptr %4, align 4
  store i32 1, ptr %9, align 4
  br label %47

19:                                               ; preds = %12, %3
  %20 = load i32, ptr %7, align 4, !tbaa !16
  %21 = icmp eq i32 %20, 1
  br i1 %21, label %22, label %34

22:                                               ; preds = %19
  %23 = load ptr, ptr %5, align 8, !tbaa !13
  store ptr %23, ptr %8, align 8, !tbaa !26
  %24 = load ptr, ptr %8, align 8, !tbaa !26
  %25 = load i32, ptr %24, align 4, !tbaa !16
  %26 = icmp slt i32 %25, 0
  br i1 %26, label %27, label %33

27:                                               ; preds = %22
  %28 = load ptr, ptr @stderr, align 8, !tbaa !24
  %29 = load ptr, ptr %6, align 8, !tbaa !22
  %30 = load ptr, ptr %8, align 8, !tbaa !26
  %31 = load i32, ptr %30, align 4, !tbaa !16
  %32 = call i32 (ptr, ptr, ...) @fprintf(ptr noundef %28, ptr noundef @.str.31, ptr noundef %29, i32 noundef %31) #5
  store i32 1, ptr %4, align 4
  store i32 1, ptr %9, align 4
  br label %47

33:                                               ; preds = %22
  br label %45

34:                                               ; preds = %19
  %35 = load i32, ptr %7, align 4, !tbaa !16
  %36 = icmp eq i32 %35, 2
  br i1 %36, label %37, label %44

37:                                               ; preds = %34
  %38 = load ptr, ptr %5, align 8, !tbaa !13
  %39 = icmp eq ptr %38, null
  br i1 %39, label %40, label %44

40:                                               ; preds = %37
  %41 = load ptr, ptr @stderr, align 8, !tbaa !24
  %42 = load ptr, ptr %6, align 8, !tbaa !22
  %43 = call i32 (ptr, ptr, ...) @fprintf(ptr noundef %41, ptr noundef @.str.32, ptr noundef %42) #5
  store i32 1, ptr %4, align 4
  store i32 1, ptr %9, align 4
  br label %47

44:                                               ; preds = %37, %34
  br label %45

45:                                               ; preds = %44, %33
  br label %46

46:                                               ; preds = %45
  store i32 0, ptr %4, align 4
  store i32 1, ptr %9, align 4
  br label %47

47:                                               ; preds = %46, %40, %27, %15
  call void @llvm.lifetime.end.p0(i64 8, ptr %8) #5
  %48 = load i32, ptr %4, align 4
  ret i32 %48
}

; Function Attrs: nounwind uwtable
define internal void @PrintFinalStats(ptr noundef %0) #0 {
  %2 = alloca ptr, align 8
  %3 = alloca i64, align 8
  %4 = alloca i64, align 8
  %5 = alloca i64, align 8
  %6 = alloca i64, align 8
  %7 = alloca i64, align 8
  %8 = alloca i64, align 8
  %9 = alloca i64, align 8
  %10 = alloca i64, align 8
  %11 = alloca i64, align 8
  %12 = alloca i32, align 4
  store ptr %0, ptr %2, align 8, !tbaa !13
  call void @llvm.lifetime.start.p0(i64 8, ptr %3) #5
  call void @llvm.lifetime.start.p0(i64 8, ptr %4) #5
  call void @llvm.lifetime.start.p0(i64 8, ptr %5) #5
  call void @llvm.lifetime.start.p0(i64 8, ptr %6) #5
  call void @llvm.lifetime.start.p0(i64 8, ptr %7) #5
  call void @llvm.lifetime.start.p0(i64 8, ptr %8) #5
  call void @llvm.lifetime.start.p0(i64 8, ptr %9) #5
  call void @llvm.lifetime.start.p0(i64 8, ptr %10) #5
  call void @llvm.lifetime.start.p0(i64 8, ptr %11) #5
  call void @llvm.lifetime.start.p0(i64 4, ptr %12) #5
  %13 = load ptr, ptr %2, align 8, !tbaa !13
  %14 = call i32 @CVodeGetNumSteps(ptr noundef %13, ptr noundef %3)
  store i32 %14, ptr %12, align 4, !tbaa !16
  %15 = call i32 @check_retval(ptr noundef %12, ptr noundef @.str.18, i32 noundef 1)
  %16 = load ptr, ptr %2, align 8, !tbaa !13
  %17 = call i32 @CVodeGetNumRhsEvals(ptr noundef %16, ptr noundef %4)
  store i32 %17, ptr %12, align 4, !tbaa !16
  %18 = call i32 @check_retval(ptr noundef %12, ptr noundef @.str.19, i32 noundef 1)
  %19 = load ptr, ptr %2, align 8, !tbaa !13
  %20 = call i32 @CVodeGetNumLinSolvSetups(ptr noundef %19, ptr noundef %5)
  store i32 %20, ptr %12, align 4, !tbaa !16
  %21 = call i32 @check_retval(ptr noundef %12, ptr noundef @.str.20, i32 noundef 1)
  %22 = load ptr, ptr %2, align 8, !tbaa !13
  %23 = call i32 @CVodeGetNumErrTestFails(ptr noundef %22, ptr noundef %10)
  store i32 %23, ptr %12, align 4, !tbaa !16
  %24 = call i32 @check_retval(ptr noundef %12, ptr noundef @.str.21, i32 noundef 1)
  %25 = load ptr, ptr %2, align 8, !tbaa !13
  %26 = call i32 @CVodeGetNumNonlinSolvIters(ptr noundef %25, ptr noundef %8)
  store i32 %26, ptr %12, align 4, !tbaa !16
  %27 = call i32 @check_retval(ptr noundef %12, ptr noundef @.str.22, i32 noundef 1)
  %28 = load ptr, ptr %2, align 8, !tbaa !13
  %29 = call i32 @CVodeGetNumNonlinSolvConvFails(ptr noundef %28, ptr noundef %9)
  store i32 %29, ptr %12, align 4, !tbaa !16
  %30 = call i32 @check_retval(ptr noundef %12, ptr noundef @.str.23, i32 noundef 1)
  %31 = load ptr, ptr %2, align 8, !tbaa !13
  %32 = call i32 @CVodeGetNumJacEvals(ptr noundef %31, ptr noundef %6)
  store i32 %32, ptr %12, align 4, !tbaa !16
  %33 = call i32 @check_retval(ptr noundef %12, ptr noundef @.str.24, i32 noundef 1)
  %34 = load ptr, ptr %2, align 8, !tbaa !13
  %35 = call i32 @CVodeGetNumLinRhsEvals(ptr noundef %34, ptr noundef %7)
  store i32 %35, ptr %12, align 4, !tbaa !16
  %36 = call i32 @check_retval(ptr noundef %12, ptr noundef @.str.25, i32 noundef 1)
  %37 = load ptr, ptr %2, align 8, !tbaa !13
  %38 = call i32 @CVodeGetNumGEvals(ptr noundef %37, ptr noundef %11)
  store i32 %38, ptr %12, align 4, !tbaa !16
  %39 = call i32 @check_retval(ptr noundef %12, ptr noundef @.str.26, i32 noundef 1)
  %40 = call i32 (ptr, ...) @printf(ptr noundef @.str.27)
  %41 = load i64, ptr %3, align 8, !tbaa !28
  %42 = load i64, ptr %4, align 8, !tbaa !28
  %43 = load i64, ptr %5, align 8, !tbaa !28
  %44 = load i64, ptr %7, align 8, !tbaa !28
  %45 = load i64, ptr %6, align 8, !tbaa !28
  %46 = call i32 (ptr, ...) @printf(ptr noundef @.str.28, i64 noundef %41, i64 noundef %42, i64 noundef %43, i64 noundef %44, i64 noundef %45)
  %47 = load i64, ptr %8, align 8, !tbaa !28
  %48 = load i64, ptr %9, align 8, !tbaa !28
  %49 = load i64, ptr %10, align 8, !tbaa !28
  %50 = load i64, ptr %11, align 8, !tbaa !28
  %51 = call i32 (ptr, ...) @printf(ptr noundef @.str.29, i64 noundef %47, i64 noundef %48, i64 noundef %49, i64 noundef %50)
  call void @llvm.lifetime.end.p0(i64 4, ptr %12) #5
  call void @llvm.lifetime.end.p0(i64 8, ptr %11) #5
  call void @llvm.lifetime.end.p0(i64 8, ptr %10) #5
  call void @llvm.lifetime.end.p0(i64 8, ptr %9) #5
  call void @llvm.lifetime.end.p0(i64 8, ptr %8) #5
  call void @llvm.lifetime.end.p0(i64 8, ptr %7) #5
  call void @llvm.lifetime.end.p0(i64 8, ptr %6) #5
  call void @llvm.lifetime.end.p0(i64 8, ptr %5) #5
  call void @llvm.lifetime.end.p0(i64 8, ptr %4) #5
  call void @llvm.lifetime.end.p0(i64 8, ptr %3) #5
  ret void
}